target datalayout = "e-m:e-p270:32:32-p271:32:32-p272:64:64-i64:64-i128:128-f80:128-n8:16:32:64-S128"
target triple = "x86_64-pc-linux-gnu"

%struct.mq = type { ptr, i32, i32, ptr, ptr, i64, ptr, i64, ptr, i64, ptr, i8, ptr, ptr, [10 x %struct.mq_item] }
%struct.mq_item = type { i32, i64, i64 }
%struct.lbr_state = type { i64, %union.RepeatControl }
%union.RepeatControl = type { %struct.RepeatRingControl }
%struct.RepeatRingControl = type { i64, i16, i16 }
%struct.lbr_common = type { i32, i32 }
%struct.RepeatInfo = type { i8, i32, i32, i32, i32, i32, i32, [2 x i32], i32, i32, i32, i32, i32 }
%struct.RepeatRangeControl = type { i64, i8 }
%struct.RepeatOffsetControl = type { i64 }
%struct.RepeatBitmapControl = type { i64, i64 }
%struct.RepeatTrailerControl = type { i64, i64 }

; Function Attrs: alwaysinline nounwind uwtable
define internal void @clearRepeat(ptr noundef %0, ptr noundef %1) #2 {
  %3 = alloca ptr, align 8
  %4 = alloca ptr, align 8
  store ptr %0, ptr %3, align 8
  store ptr %1, ptr %4, align 8
  br label %5

5:                                                ; preds = %2
  br label %6

6:                                                ; preds = %5
  %7 = load ptr, ptr %3, align 8
  %8 = getelementptr inbounds nuw %struct.RepeatInfo, ptr %7, i32 0, i32 0
  %9 = load i8, ptr %8, align 4
  %10 = zext i8 %9 to i32
  switch i32 %10, label %35 [
    i32 0, label %11
    i32 3, label %15
    i32 1, label %19
    i32 2, label %19
    i32 4, label %23
    i32 5, label %27
    i32 6, label %31
  ]

11:                                               ; preds = %6
  %12 = load ptr, ptr %4, align 8
  %13 = getelementptr inbounds nuw %struct.lbr_state, ptr %12, i32 0, i32 1
  %14 = getelementptr inbounds nuw %struct.RepeatRingControl, ptr %13, i32 0, i32 0
  store i64 -1, ptr %14, align 8
  br label %36

15:                                               ; preds = %6
  %16 = load ptr, ptr %4, align 8
  %17 = getelementptr inbounds nuw %struct.lbr_state, ptr %16, i32 0, i32 1
  %18 = getelementptr inbounds nuw %struct.RepeatRangeControl, ptr %17, i32 0, i32 0
  store i64 -1, ptr %18, align 8
  br label %36

19:                                               ; preds = %6, %6
  %20 = load ptr, ptr %4, align 8
  %21 = getelementptr inbounds nuw %struct.lbr_state, ptr %20, i32 0, i32 1
  %22 = getelementptr inbounds nuw %struct.RepeatOffsetControl, ptr %21, i32 0, i32 0
  store i64 -1, ptr %22, align 8
  br label %36

23:                                               ; preds = %6
  %24 = load ptr, ptr %4, align 8
  %25 = getelementptr inbounds nuw %struct.lbr_state, ptr %24, i32 0, i32 1
  %26 = getelementptr inbounds nuw %struct.RepeatBitmapControl, ptr %25, i32 0, i32 0
  store i64 -1, ptr %26, align 8
  br label %36

27:                                               ; preds = %6
  %28 = load ptr, ptr %4, align 8
  %29 = getelementptr inbounds nuw %struct.lbr_state, ptr %28, i32 0, i32 1
  %30 = getelementptr inbounds nuw %struct.RepeatRingControl, ptr %29, i32 0, i32 0
  store i64 -1, ptr %30, align 8
  br label %36

31:                                               ; preds = %6
  %32 = load ptr, ptr %4, align 8
  %33 = getelementptr inbounds nuw %struct.lbr_state, ptr %32, i32 0, i32 1
  %34 = getelementptr inbounds nuw %struct.RepeatTrailerControl, ptr %33, i32 0, i32 0
  store i64 -1, ptr %34, align 8
  br label %36

35:                                               ; preds = %6
  br label %36

36:                                               ; preds = %35, %31, %27, %23, %19, %15, %11
  ret void
}

; Function Attrs: alwaysinline nounwind uwtable
define internal ptr @getRepeatInfo(ptr noundef %0) #2 {
  %2 = alloca ptr, align 8
  %3 = alloca ptr, align 8
  store ptr %0, ptr %2, align 8
  call void @llvm.lifetime.start.p0(i64 8, ptr %3) #8
  %4 = load ptr, ptr %2, align 8
  %5 = load ptr, ptr %2, align 8
  %6 = getelementptr inbounds nuw %struct.lbr_common, ptr %5, i32 0, i32 0
  %7 = load i32, ptr %6, align 4
  %8 = zext i32 %7 to i64
  %9 = getelementptr inbounds nuw i8, ptr %4, i64 %8
  store ptr %9, ptr %3, align 8
  %10 = load ptr, ptr %3, align 8
  call void @llvm.lifetime.end.p0(i64 8, ptr %3) #8
  ret ptr %10
}

; Function Attrs: nounwind uwtable
define hidden signext i8 @nfaExecLbrNVerm_queueInitState(ptr noundef %0, ptr noundef %1) #0 {
  %3 = alloca ptr, align 8
  %4 = alloca ptr, align 8
  %5 = alloca ptr, align 8
  %6 = alloca ptr, align 8
  %7 = alloca ptr, align 8
  store ptr %0, ptr %3, align 8
  store ptr %1, ptr %4, align 8
  br label %8

8:                                                ; preds = %2
  br label %9

9:                                                ; preds = %8
  call void @llvm.lifetime.start.p0(i64 8, ptr %5) #8
  %10 = load ptr, ptr %3, align 8
  %11 = getelementptr inbounds nuw i8, ptr %10, i64 64
  store ptr %11, ptr %5, align 8
  call void @llvm.lifetime.start.p0(i64 8, ptr %6) #8
  %12 = load ptr, ptr %5, align 8
  %13 = call ptr @getRepeatInfo(ptr noundef %12)
  store ptr %13, ptr %6, align 8
  call void @llvm.lifetime.start.p0(i64 8, ptr %7) #8
  %14 = load ptr, ptr %4, align 8
  %15 = getelementptr inbounds nuw %struct.mq, ptr %14, i32 0, i32 3
  %16 = load ptr, ptr %15, align 8
  store ptr %16, ptr %7, align 8
  %17 = load ptr, ptr %7, align 8
  %18 = getelementptr inbounds nuw %struct.lbr_state, ptr %17, i32 0, i32 0
  store i64 0, ptr %18, align 8
  %19 = load ptr, ptr %6, align 8
  %20 = load ptr, ptr %7, align 8
  call void @clearRepeat(ptr noundef %19, ptr noundef %20)
  call void @llvm.lifetime.end.p0(i64 8, ptr %7) #8
  call void @llvm.lifetime.end.p0(i64 8, ptr %6) #8
  call void @llvm.lifetime.end.p0(i64 8, ptr %5) #8
  ret i8 0
}